; Function Attrs: mustprogress nounwind uwtable
define internal void @_ZN5folly20SingletonThreadLocalINS_4test12_GLOBAL__N_114PerThreadStateENS_6detail10DefaultTagENS4_11DefaultMakeIS3_EEvE13LocalLifetimeD2Ev(ptr noundef nonnull align 1 dereferenceable(1) %0) unnamed_addr #14 align 2 personality ptr @__gxx_personality_v0 {
  %2 = invoke fastcc noundef nonnull align 8 dereferenceable(168) ptr @_ZN5folly20SingletonThreadLocalINS_4test12_GLOBAL__N_114PerThreadStateENS_6detail10DefaultTagENS4_11DefaultMakeIS3_EEvE10getWrapperEv()
          to label %3 unwind label %5

3:                                                ; preds = %1
  %4 = getelementptr inbounds nuw i8, ptr %2, i64 56
  tail call void @_ZN5folly6detail25SingletonThreadLocalState13LocalLifetime7destroyERNS1_8TrackingE(ptr noundef nonnull align 1 dereferenceable(1) %0, ptr noundef nonnull align 8 dereferenceable(112) %4) #18
  ret void

5:                                                ; preds = %1
  %6 = landingpad { ptr, i32 }
          catch ptr null
  %7 = extractvalue { ptr, i32 } %6, 0
  tail call void @__clang_call_terminate(ptr %7) #36
  unreachable
}